target datalayout = "e-m:e-p270:32:32-p271:32:32-p272:64:64-i64:64-i128:128-f80:128-n8:16:32:64-S128"
target triple = "x86_64-pc-linux-gnu"

%class.outputStream = type { ptr, i32, i8, i32, i64, %class.TimeStamp, ptr, i64 }
%class.TimeStamp = type { i64 }
%class.defaultStream = type { %class.xmlTextStream, i8, ptr, i64, i64 }
%class.xmlTextStream = type { %class.outputStream, ptr }

@_ZTV12outputStream = linkonce_odr hidden unnamed_addr constant { [7 x ptr] } { [7 x ptr] [ptr null, ptr null, ptr @_ZN12outputStream5flushEv, ptr @__cxa_pure_virtual, ptr @_ZN12outputStream10rotate_logEbPS_, ptr @_ZN12outputStreamD2Ev, ptr @_ZN12outputStreamD0Ev] }, comdat, align 8
@tty = hidden global ptr @_ZL18tty_preinit_stream, align 8
@_ZN13defaultStream8instanceE = hidden global ptr null, align 8
@_ZTV13defaultStream = hidden unnamed_addr constant { [7 x ptr] } { [7 x ptr] [ptr null, ptr null, ptr @_ZN13defaultStream5flushEv, ptr @_ZN13defaultStream5writeEPKcm, ptr @_ZN12outputStream10rotate_logEbPS_, ptr @_ZN13defaultStreamD2Ev, ptr @_ZN13defaultStreamD0Ev] }, align 8
@_ZTV13xmlTextStream = external unnamed_addr constant { [7 x ptr] }, align 8

; Function Attrs: mustprogress nounwind uwtable
define linkonce_odr hidden void @_ZN9TimeStampC2Ev(ptr noundef nonnull align 8 dereferenceable(8) %0) unnamed_addr #1 comdat align 2 {
  %2 = alloca ptr, align 8
  store ptr %0, ptr %2, align 8
  %3 = load ptr, ptr %2, align 8
  %4 = getelementptr inbounds %class.TimeStamp, ptr %3, i32 0, i32 0
  store i64 0, ptr %4, align 8
  ret void
}

; Function Attrs: mustprogress nounwind uwtable
define hidden void @_ZN12outputStreamC2Eb(ptr noundef nonnull align 8 dereferenceable(56) %0, i1 noundef zeroext %1) unnamed_addr #1 align 2 {
  %3 = alloca ptr, align 8
  %4 = alloca i8, align 1
  store ptr %0, ptr %3, align 8
  %5 = zext i1 %1 to i8
  store i8 %5, ptr %4, align 1
  %6 = load ptr, ptr %3, align 8
  store ptr getelementptr inbounds inrange(-16, 40) ({ [7 x ptr] }, ptr @_ZTV12outputStream, i32 0, i32 0, i32 2), ptr %6, align 8
  %7 = getelementptr inbounds %class.outputStream, ptr %6, i32 0, i32 5
  call void @_ZN9TimeStampC2Ev(ptr noundef nonnull align 8 dereferenceable(8) %7)
  %8 = getelementptr inbounds %class.outputStream, ptr %6, i32 0, i32 3
  store i32 0, ptr %8, align 8
  %9 = getelementptr inbounds %class.outputStream, ptr %6, i32 0, i32 4
  store i64 0, ptr %9, align 8
  %10 = getelementptr inbounds %class.outputStream, ptr %6, i32 0, i32 1
  store i32 0, ptr %10, align 8
  %11 = getelementptr inbounds %class.outputStream, ptr %6, i32 0, i32 2
  store i8 0, ptr %11, align 4
  %12 = getelementptr inbounds %class.outputStream, ptr %6, i32 0, i32 6
  store ptr null, ptr %12, align 8
  %13 = getelementptr inbounds %class.outputStream, ptr %6, i32 0, i32 7
  store i64 0, ptr %13, align 8
  %14 = load i8, ptr %4, align 1
  %15 = trunc i8 %14 to i1
  br i1 %15, label %16, label %18

16:                                               ; preds = %2
  %17 = getelementptr inbounds %class.outputStream, ptr %6, i32 0, i32 5
  call void @_ZN9TimeStamp6updateEv(ptr noundef nonnull align 8 dereferenceable(8) %17)
  br label %18

18:                                               ; preds = %16, %2
  ret void
}

; Function Attrs: mustprogress nounwind uwtable
define linkonce_odr hidden void @_ZN13xmlTextStreamC2Ev(ptr noundef nonnull align 8 dereferenceable(64) %0) unnamed_addr #1 comdat align 2 {
  %2 = alloca ptr, align 8
  store ptr %0, ptr %2, align 8
  %3 = load ptr, ptr %2, align 8
  call void @_ZN12outputStreamC2Eb(ptr noundef nonnull align 8 dereferenceable(56) %3, i1 noundef zeroext false)
  store ptr getelementptr inbounds inrange(-16, 40) ({ [7 x ptr] }, ptr @_ZTV13xmlTextStream, i32 0, i32 0, i32 2), ptr %3, align 8
  %4 = getelementptr inbounds %class.xmlTextStream, ptr %3, i32 0, i32 1
  store ptr null, ptr %4, align 8
  ret void
}

; Function Attrs: mustprogress nounwind uwtable
define linkonce_odr hidden noundef nonnull align 8 dereferenceable(8) ptr @_ZN12outputStream10time_stampEv(ptr noundef nonnull align 8 dereferenceable(56) %0) #1 comdat align 2 {
  %2 = alloca ptr, align 8
  store ptr %0, ptr %2, align 8
  %3 = load ptr, ptr %2, align 8
  %4 = getelementptr inbounds %class.outputStream, ptr %3, i32 0, i32 5
  ret ptr %4
}

; Function Attrs: mustprogress nounwind uwtable
define linkonce_odr hidden void @_ZN13defaultStreamC2Ev(ptr noundef nonnull align 8 dereferenceable(96) %0) unnamed_addr #1 comdat align 2 {
  %2 = alloca ptr, align 8
  store ptr %0, ptr %2, align 8
  %3 = load ptr, ptr %2, align 8
  call void @_ZN13xmlTextStreamC2Ev(ptr noundef nonnull align 8 dereferenceable(64) %3)
  store ptr getelementptr inbounds inrange(-16, 40) ({ [7 x ptr] }, ptr @_ZTV13defaultStream, i32 0, i32 0, i32 2), ptr %3, align 8
  %4 = getelementptr inbounds %class.defaultStream, ptr %3, i32 0, i32 2
  store ptr null, ptr %4, align 8
  %5 = getelementptr inbounds %class.defaultStream, ptr %3, i32 0, i32 1
  store i8 0, ptr %5, align 8
  %6 = getelementptr inbounds %class.defaultStream, ptr %3, i32 0, i32 3
  store i64 -1, ptr %6, align 8
  %7 = getelementptr inbounds %class.defaultStream, ptr %3, i32 0, i32 4
  store i64 -1, ptr %7, align 8
  ret void
}

; Function Attrs: mustprogress nounwind uwtable
define hidden void @_Z12ostream_initv() #1 {
  %1 = alloca i64, align 8
  %2 = alloca i8, align 1
  %3 = load ptr, ptr @_ZN13defaultStream8instanceE, align 8
  %4 = icmp eq ptr %3, null
  br i1 %4, label %5, label %12

5:                                                ; preds = %0
  store i64 96, ptr %1, align 8
  store i8 9, ptr %2, align 1
  %6 = load i64, ptr %1, align 8
  %7 = load i8, ptr %2, align 1
  %8 = call noundef ptr @_Z12AllocateHeapm8MEMFLAGSN17AllocFailStrategy13AllocFailEnumE(i64 noundef %6, i8 noundef zeroext %7, i32 noundef 0) #6
  call void @_ZN13defaultStreamC2Ev(ptr noundef nonnull align 8 dereferenceable(96) %8)
  store ptr %8, ptr @_ZN13defaultStream8instanceE, align 8
  %9 = load ptr, ptr @_ZN13defaultStream8instanceE, align 8
  store ptr %9, ptr @tty, align 8
  %10 = load ptr, ptr @tty, align 8
  %11 = call noundef nonnull align 8 dereferenceable(8) ptr @_ZN12outputStream10time_stampEv(ptr noundef nonnull align 8 dereferenceable(56) %10)
  call void @_ZN9TimeStamp9update_toEl(ptr noundef nonnull align 8 dereferenceable(8) %11, i64 noundef 1)
  br label %12

12:                                               ; preds = %5, %0
  ret void
}