; Function Attrs: mustprogress nounwind uwtable
define hidden void @_Z12ostream_initv() local_unnamed_addr #0 {
  %1 = load ptr, ptr @_ZN13defaultStream8instanceE, align 8
  %2 = icmp eq ptr %1, null
  br i1 %2, label %3, label %13

3:                                                ; preds = %0
  %4 = tail call noundef ptr @_Z12AllocateHeapm8MEMFLAGSN17AllocFailStrategy13AllocFailEnumE(i64 noundef 96, i8 noundef zeroext 9, i32 noundef 0) #21
  %5 = getelementptr inbounds i8, ptr %4, i64 16
  store i32 0, ptr %5, align 8
  %6 = getelementptr inbounds i8, ptr %4, i64 24
  %7 = getelementptr inbounds i8, ptr %4, i64 8
  store i32 0, ptr %7, align 8
  %8 = getelementptr inbounds i8, ptr %4, i64 12
  store i8 0, ptr %8, align 4
  tail call void @llvm.memset.p0.i64(ptr noundef nonnull align 8 dereferenceable(40) %6, i8 0, i64 40, i1 false)
  store ptr getelementptr inbounds inrange(-16, 40) (i8, ptr @_ZTV13defaultStream, i64 16), ptr %4, align 8
  %9 = getelementptr inbounds i8, ptr %4, i64 72
  store ptr null, ptr %9, align 8
  %10 = getelementptr inbounds i8, ptr %4, i64 64
  store i8 0, ptr %10, align 8
  %11 = getelementptr inbounds i8, ptr %4, i64 80
  tail call void @llvm.memset.p0.i64(ptr noundef nonnull align 8 dereferenceable(16) %11, i8 -1, i64 16, i1 false)
  store ptr %4, ptr @_ZN13defaultStream8instanceE, align 8
  store ptr %4, ptr @tty, align 8
  %12 = getelementptr inbounds i8, ptr %4, i64 32
  tail call void @_ZN9TimeStamp9update_toEl(ptr noundef nonnull align 8 dereferenceable(8) %12, i64 noundef 1) #21
  br label %13

13:                                               ; preds = %3, %0
  ret void
}